(lp0
(idata_utils
SymbolsManager
p1
(dp2
S'vocab_size'
p3
I145
sS'symbol2idx'
p4
(dp5
S'all'
p6
I49
sS'show'
p7
I15
sS'over'
p8
I78
sS'move'
p9
I106
sS'dollar'
p10
I87
sS'find'
p11
I68
sS'involv'
p12
I79
sS'onli'
p13
I92
sS'locat'
p14
I80
sS'<E>'
p15
I2
sS'than'
p16
I58
sS'to'
p17
I59
sS'program'
p18
I64
sS'do'
p19
I44
sS'greater'
p20
I72
sVnsubj
p21
I132
sS'year0'
p22
I34
sS'year1'
p23
I93
sS'<N>'
p24
I4
sS'know'
p25
I65
sVcompound
p26
I134
sS'not'
p27
I33
sS'requir'
p28
I12
sS'like'
p29
I82
sS'administr'
p30
I107
sS'anyth'
p31
I94
sS'list'
p32
I35
sS'locid0'
p33
I11
sVamod
p34
I138
sVcc
p35
I143
sS'art'
p36
I114
sS'deal'
p37
I95
sS'knowledg'
p38
I50
sS'some'
p39
I96
sVccomp
p40
I133
sS'companyid0'
p41
I31
sS'<P>'
p42
I0
sS'see'
p43
I108
sS'are'
p44
I9
sS'year'
p45
I32
sS'special'
p46
I109
sS'out'
p47
I88
sS'what'
p48
I8
sS'for'
p49
I20
sS'languageid0'
p50
I7
sS'applicationid0'
p51
I54
sS'per'
p52
I55
sVcase
p53
I130
sS'experi'
p54
I24
sS'machin'
p55
I110
sS'specialist'
p56
I43
sVexpl
p57
I136
sS'recruiterid0'
p58
I73
sS'job'
p59
I5
sS'colleg'
p60
I111
sS'areaid1'
p61
I97
sS'areaid0'
p62
I21
sS'on'
p63
I25
sS'of'
p64
I29
sS'could'
p65
I89
sVdobj
p66
I135
sS'degre'
p67
I39
sS'or'
p68
I98
sS'major'
p69
I112
sS'dont'
p70
I69
sS'student'
p71
I127
sS'within'
p72
I113
sS'platform'
p73
I99
sS'open'
p74
I60
sS'languageid1'
p75
I45
sS'languageid2'
p76
I115
sS'use'
p77
I18
sS'num_salary'
p78
I27
sS'from'
p79
I116
sS'would'
p80
I100
sS'area'
p81
I71
sS'there'
p82
I13
sS'system'
p83
I117
sS'least'
p84
I62
sS'avail'
p85
I47
sS'their'
p86
I118
sS'tell'
p87
I56
sS'more'
p88
I83
sS'desir'
p89
I40
sS'offer'
p90
I57
sS'<S>'
p91
I1
sS'peopl'
p92
I101
sS'tool'
p93
I119
sS'but'
p94
I41
sS'compani'
p95
I84
sS'with'
p96
I28
sS'specialti'
p97
I81
sS'me'
p98
I14
sS'hire'
p99
I102
sS'titleid0'
p100
I22
sVdep
p101
I139
sS'wish'
p102
I120
sS'work'
p103
I63
sVdet
p104
I129
sS'recruit'
p105
I85
sVnmod
p106
I131
sS'employ'
p107
I121
sVacl:relcl
p108
I142
sViobj
p109
I137
sS'can'
p110
I74
sS'were'
p111
I122
sS'posit'
p112
I51
sS'and'
p113
I30
sS'comput'
p114
I90
sS'have'
p115
I52
sS'give'
p116
I38
sS'is'
p117
I61
sVcop
p118
I140
sS'ani'
p119
I26
sS'an'
p120
I86
sS'as'
p121
I75
sS'at'
p122
I37
sS'want'
p123
I66
sS'in'
p124
I6
sS'need'
p125
I70
sVconj
p126
I144
sS'platformid1'
p127
I124
sS'platformid0'
p128
I19
sS'develop'
p129
I103
sS'no'
p130
I48
sS'pay'
p131
I36
sS'that'
p132
I23
sS'degid1'
p133
I91
sS'degid0'
p134
I17
sS'which'
p135
I42
sS'you'
p136
I76
sS'concern'
p137
I125
sS'sure'
p138
I126
sS'who'
p139
I67
sS'applic'
p140
I123
sVneg
p141
I141
sS'everyth'
p142
I105
sS'<U>'
p143
I3
sS'a'
p144
I10
sS'i'
p145
I53
sS'doe'
p146
I77
sS'salari'
p147
I46
sS'titl'
p148
I104
sS'fresh'
p149
I128
sS'the'
p150
I16
ssS'whether_add_special_tags'
p151
I01
sS'idx2symbol'
p152
(dp153
I0
g42
sI1
g91
sI2
g15
sI3
g143
sI4
g24
sI5
g59
sI6
g124
sI7
g50
sI8
g48
sI9
g44
sI10
g144
sI11
g33
sI12
g28
sI13
g82
sI14
g98
sI15
g7
sI16
g150
sI17
g134
sI18
g77
sI19
g128
sI20
g49
sI21
g62
sI22
g100
sI23
g132
sI24
g54
sI25
g63
sI26
g119
sI27
g78
sI28
g96
sI29
g64
sI30
g113
sI31
g41
sI32
g45
sI33
g27
sI34
g22
sI35
g32
sI36
g131
sI37
g122
sI38
g116
sI39
g67
sI40
g89
sI41
g94
sI42
g135
sI43
g56
sI44
g19
sI45
g75
sI46
g147
sI47
g85
sI48
g130
sI49
g6
sI50
g38
sI51
g112
sI52
g115
sI53
g145
sI54
g51
sI55
g52
sI56
g87
sI57
g90
sI58
g16
sI59
g17
sI60
g74
sI61
g117
sI62
g84
sI63
g103
sI64
g18
sI65
g25
sI66
g123
sI67
g139
sI68
g11
sI69
g70
sI70
g125
sI71
g81
sI72
g20
sI73
g58
sI74
g110
sI75
g121
sI76
g136
sI77
g146
sI78
g8
sI79
g12
sI80
g14
sI81
g97
sI82
g29
sI83
g88
sI84
g95
sI85
g105
sI86
g120
sI87
g10
sI88
g47
sI89
g65
sI90
g114
sI91
g133
sI92
g13
sI93
g23
sI94
g31
sI95
g37
sI96
g39
sI97
g61
sI98
g68
sI99
g73
sI100
g80
sI101
g92
sI102
g99
sI103
g129
sI104
g148
sI105
g142
sI106
g9
sI107
g30
sI108
g43
sI109
g46
sI110
g55
sI111
g60
sI112
g69
sI113
g72
sI114
g36
sI115
g76
sI116
g79
sI117
g83
sI118
g86
sI119
g93
sI120
g102
sI121
g107
sI122
g111
sI123
g140
sI124
g127
sI125
g137
sI126
g138
sI127
g71
sI128
g149
sI129
g104
sI130
g53
sI131
g106
sI132
g21
sI133
g40
sI134
g26
sI135
g66
sI136
g57
sI137
g109
sI138
g34
sI139
g101
sI140
g118
sI141
g141
sI142
g108
sI143
g35
sI144
g126
ssba(idata_utils
SymbolsManager
p154
(dp155
g3
I52
sg4
(dp156
S'application'
p157
I30
sS'languageid1'
p158
I31
sS'applicationid0'
p159
I33
sS'companyid0'
p160
I28
sg42
I0
sS'degid1'
p161
I39
sS'salary_greater_than'
p162
I22
sS'year'
p163
I24
sS'des_exp'
p164
I35
sS'languageid0'
p165
I11
sS'platformid0'
p166
I17
sS'languageid2'
p167
I44
sS'loc'
p168
I12
sS'des_deg'
p169
I34
sS'num_salary'
p170
I23
sS'20'
p171
I47
sS'area'
p172
I18
sS')'
p173
I6
sS'('
p174
I7
sS'recruiter'
p175
I36
sS','
p176
I5
sg15
I2
sS'degid0'
p177
I15
sS'platform'
p178
I16
sS'platformid1'
p179
I45
sS';'
p180
I40
sS'\\+'
p181
I26
sS'A'
p182
I32
sS'B'
p183
I37
sg91
I1
sS'company'
p184
I27
sS'year0'
p185
I29
sS'year1'
p186
I41
sS'recruiterid0'
p187
I38
sS'P'
p188
I46
sS'job'
p189
I9
sg24
I4
sS'X'
p190
I42
sS'areaid1'
p191
I43
sS'areaid0'
p192
I19
sg143
I3
sS'salary_less_than'
p193
I49
sS'req_deg'
p194
I14
sS'titleid0'
p195
I20
sS'hour'
p196
I50
sS'language'
p197
I10
sS'title'
p198
I21
sS'locid1'
p199
I51
sS'locid0'
p200
I13
sS'req_exp'
p201
I25
sS'month'
p202
I48
sS'ANS'
p203
I8
ssg151
I01
sg152
(dp204
I0
g42
sI1
g91
sI2
g15
sI3
g143
sI4
g24
sI5
g176
sI6
g173
sI7
g174
sI8
g203
sI9
g189
sI10
g197
sI11
g165
sI12
g168
sI13
g200
sI14
g194
sI15
g177
sI16
g178
sI17
g166
sI18
g172
sI19
g192
sI20
g195
sI21
g198
sI22
g162
sI23
g170
sI24
g163
sI25
g201
sI26
g181
sI27
g184
sI28
g160
sI29
g185
sI30
g157
sI31
g158
sI32
g182
sI33
g159
sI34
g169
sI35
g164
sI36
g175
sI37
g183
sI38
g187
sI39
g161
sI40
g180
sI41
g186
sI42
g190
sI43
g191
sI44
g167
sI45
g179
sI46
g188
sI47
g171
sI48
g202
sI49
g193
sI50
g196
sI51
g199
ssba.